target datalayout = "e-m:e-p270:32:32-p271:32:32-p272:64:64-i64:64-i128:128-f80:128-n8:16:32:64-S128"
target triple = "x86_64-pc-linux-gnu"

@.str.3 = private unnamed_addr constant [6 x i8] c"false\00", align 1
@.str.4 = private unnamed_addr constant [5 x i8] c"true\00", align 1

; Function Attrs: nounwind uwtable
define hidden i32 @SDL_GetStringInteger(ptr noundef %0, i32 noundef %1) #0 {
  %3 = alloca i32, align 4
  %4 = alloca ptr, align 8
  %5 = alloca i32, align 4
  store ptr %0, ptr %4, align 8
  store i32 %1, ptr %5, align 4
  %6 = load ptr, ptr %4, align 8
  %7 = icmp ne ptr %6, null
  br i1 %7, label %8, label %12

8:                                                ; preds = %2
  %9 = load ptr, ptr %4, align 8
  %10 = load i8, ptr %9, align 1
  %11 = icmp ne i8 %10, 0
  br i1 %11, label %14, label %12

12:                                               ; preds = %8, %2
  %13 = load i32, ptr %5, align 4
  store i32 %13, ptr %3, align 4
  br label %40

14:                                               ; preds = %8
  %15 = load ptr, ptr %4, align 8
  %16 = call i32 @SDL_strcasecmp_REAL(ptr noundef %15, ptr noundef @.str.3)
  %17 = icmp eq i32 %16, 0
  br i1 %17, label %18, label %19

18:                                               ; preds = %14
  store i32 0, ptr %3, align 4
  br label %40

19:                                               ; preds = %14
  %20 = load ptr, ptr %4, align 8
  %21 = call i32 @SDL_strcasecmp_REAL(ptr noundef %20, ptr noundef @.str.4)
  %22 = icmp eq i32 %21, 0
  br i1 %22, label %23, label %24

23:                                               ; preds = %19
  store i32 1, ptr %3, align 4
  br label %40

24:                                               ; preds = %19
  %25 = load ptr, ptr %4, align 8
  %26 = load i8, ptr %25, align 1
  %27 = sext i8 %26 to i32
  %28 = icmp eq i32 %27, 45
  br i1 %28, label %35, label %29

29:                                               ; preds = %24
  %30 = load ptr, ptr %4, align 8
  %31 = load i8, ptr %30, align 1
  %32 = sext i8 %31 to i32
  %33 = call i32 @SDL_isdigit_REAL(i32 noundef %32)
  %34 = icmp ne i32 %33, 0
  br i1 %34, label %35, label %38

35:                                               ; preds = %29, %24
  %36 = load ptr, ptr %4, align 8
  %37 = call i32 @SDL_atoi_REAL(ptr noundef %36)
  store i32 %37, ptr %3, align 4
  br label %40

38:                                               ; preds = %29
  %39 = load i32, ptr %5, align 4
  store i32 %39, ptr %3, align 4
  br label %40

40:                                               ; preds = %38, %35, %23, %18, %12
  %41 = load i32, ptr %3, align 4
  ret i32 %41
}