; Function Attrs: nounwind uwtable
define hidden i32 @SDL_GetStringInteger(ptr noundef %0, i32 noundef %1) local_unnamed_addr #1 {
  %.not = icmp eq ptr %0, null
  br i1 %.not, label %19, label %3

3:                                                ; preds = %2
  %4 = load i8, ptr %0, align 1
  %.not11 = icmp eq i8 %4, 0
  br i1 %.not11, label %19, label %5

5:                                                ; preds = %3
  %6 = tail call i32 @SDL_strcasecmp_REAL(ptr noundef nonnull %0, ptr noundef nonnull @.str.3) #3
  %7 = icmp eq i32 %6, 0
  br i1 %7, label %19, label %8

8:                                                ; preds = %5
  %9 = tail call i32 @SDL_strcasecmp_REAL(ptr noundef nonnull %0, ptr noundef nonnull @.str.4) #3
  %10 = icmp eq i32 %9, 0
  br i1 %10, label %19, label %11

11:                                               ; preds = %8
  %12 = load i8, ptr %0, align 1
  %13 = icmp eq i8 %12, 45
  br i1 %13, label %17, label %14

14:                                               ; preds = %11
  %15 = sext i8 %12 to i32
  %16 = tail call i32 @SDL_isdigit_REAL(i32 noundef %15) #3
  %.not12 = icmp eq i32 %16, 0
  br i1 %.not12, label %19, label %17

17:                                               ; preds = %14, %11
  %18 = tail call i32 @SDL_atoi_REAL(ptr noundef nonnull %0) #3
  br label %19

19:                                               ; preds = %14, %8, %5, %2, %3, %17
  %.0 = phi i32 [ %18, %17 ], [ %1, %3 ], [ %1, %2 ], [ 0, %5 ], [ 1, %8 ], [ %1, %14 ]
  ret i32 %.0
}